; Function Attrs: mustprogress nofree norecurse nosync nounwind memory(readwrite, inaccessiblemem: none) uwtable
define void @_ZN3gmx25AnalysisDataFrameAverager9addPointsERKNS_23AnalysisDataPointSetRefE(ptr nocapture noundef nonnull readonly align 8 dereferenceable(25) %0, ptr nocapture noundef nonnull readonly align 8 dereferenceable(40) %1) local_unnamed_addr #7 align 2 {
  %3 = getelementptr inbounds i8, ptr %1, i64 24
  %4 = getelementptr inbounds i8, ptr %1, i64 32
  %.sroa.0.0.copyload.i.i.i10 = load ptr, ptr %3, align 8
  %5 = load ptr, ptr %4, align 8
  %6 = ptrtoint ptr %5 to i64
  %7 = ptrtoint ptr %.sroa.0.0.copyload.i.i.i10 to i64
  %8 = sub i64 %6, %7
  %9 = lshr exact i64 %8, 4
  %10 = trunc i64 %9 to i32
  %11 = icmp sgt i32 %10, 0
  br i1 %11, label %.lr.ph.preheader, label %._crit_edge

.lr.ph.preheader:                                 ; preds = %2
  %12 = getelementptr inbounds i8, ptr %1, i64 16
  %13 = load i32, ptr %12, align 8
  %14 = sext i32 %13 to i64
  br label %.lr.ph

.lr.ph:                                           ; preds = %.lr.ph.preheader, %38
  %15 = phi ptr [ %5, %.lr.ph.preheader ], [ %39, %38 ]
  %.sroa.0.0.copyload.i.i.i13 = phi ptr [ %.sroa.0.0.copyload.i.i.i10, %.lr.ph.preheader ], [ %.sroa.0.0.copyload.i.i.i, %38 ]
  %indvars.iv = phi i64 [ 0, %.lr.ph.preheader ], [ %indvars.iv.next, %38 ]
  %16 = getelementptr inbounds %"class.gmx::AnalysisDataValue", ptr %.sroa.0.0.copyload.i.i.i13, i64 %indvars.iv, i32 2
  %17 = load i64, ptr %16, align 8
  %18 = and i64 %17, 4
  %.not = icmp eq i64 %18, 0
  br i1 %.not, label %38, label %19

19:                                               ; preds = %.lr.ph
  %20 = getelementptr inbounds %"class.gmx::AnalysisDataValue", ptr %.sroa.0.0.copyload.i.i.i13, i64 %indvars.iv
  %21 = load float, ptr %20, align 8
  %22 = load ptr, ptr %0, align 8
  %23 = getelementptr %"struct.gmx::AnalysisDataFrameAverager::AverageItem", ptr %22, i64 %indvars.iv
  %24 = getelementptr %"struct.gmx::AnalysisDataFrameAverager::AverageItem", ptr %23, i64 %14
  %25 = fpext float %21 to double
  %26 = load double, ptr %24, align 8
  %27 = fsub double %25, %26
  %28 = getelementptr inbounds i8, ptr %24, i64 16
  %29 = load i32, ptr %28, align 8
  %30 = add nsw i32 %29, 1
  store i32 %30, ptr %28, align 8
  %31 = sitofp i32 %30 to double
  %32 = fdiv double %27, %31
  %33 = fadd double %26, %32
  store double %33, ptr %24, align 8
  %34 = fsub double %25, %33
  %35 = getelementptr inbounds i8, ptr %24, i64 8
  %36 = load double, ptr %35, align 8
  %37 = tail call double @llvm.fmuladd.f64(double %27, double %34, double %36)
  store double %37, ptr %35, align 8
  %.sroa.0.0.copyload.i.i.i.pre = load ptr, ptr %3, align 8
  %.pre = load ptr, ptr %4, align 8
  br label %38

38:                                               ; preds = %.lr.ph, %19
  %39 = phi ptr [ %15, %.lr.ph ], [ %.pre, %19 ]
  %.sroa.0.0.copyload.i.i.i = phi ptr [ %.sroa.0.0.copyload.i.i.i13, %.lr.ph ], [ %.sroa.0.0.copyload.i.i.i.pre, %19 ]
  %indvars.iv.next = add nuw nsw i64 %indvars.iv, 1
  %40 = ptrtoint ptr %39 to i64
  %41 = ptrtoint ptr %.sroa.0.0.copyload.i.i.i to i64
  %42 = sub i64 %40, %41
  %sext = shl i64 %42, 28
  %43 = ashr i64 %sext, 32
  %44 = icmp slt i64 %indvars.iv.next, %43
  br i1 %44, label %.lr.ph, label %._crit_edge, !llvm.loop !12

._crit_edge:                                      ; preds = %38, %2
  ret void
}